target datalayout = "e-m:e-p270:32:32-p271:32:32-p272:64:64-i64:64-i128:128-f80:128-n8:16:32:64-S128"
target triple = "x86_64-unknown-linux-gnu"

%"class.std::set.0" = type { %"class.std::_Rb_tree.1" }
%"class.std::_Rb_tree.1" = type { %"struct.std::_Rb_tree<QuantLib::Observer *, QuantLib::Observer *, std::_Identity<QuantLib::Observer *>, std::less<QuantLib::Observer *>>::_Rb_tree_impl" }
%"struct.std::_Rb_tree<QuantLib::Observer *, QuantLib::Observer *, std::_Identity<QuantLib::Observer *>, std::less<QuantLib::Observer *>>::_Rb_tree_impl" = type { [8 x i8], %"struct.std::_Rb_tree_header" }
%"struct.std::_Rb_tree_header" = type { %"struct.std::_Rb_tree_node_base", i64 }
%"struct.std::_Rb_tree_node_base" = type { i32, ptr, ptr, ptr }
%"class.std::set" = type { %"class.std::_Rb_tree" }
%"class.std::_Rb_tree" = type { %"struct.std::_Rb_tree<boost::shared_ptr<QuantLib::Observable>, boost::shared_ptr<QuantLib::Observable>, std::_Identity<boost::shared_ptr<QuantLib::Observable>>, std::less<boost::shared_ptr<QuantLib::Observable>>>::_Rb_tree_impl" }
%"struct.std::_Rb_tree<boost::shared_ptr<QuantLib::Observable>, boost::shared_ptr<QuantLib::Observable>, std::_Identity<boost::shared_ptr<QuantLib::Observable>>, std::less<boost::shared_ptr<QuantLib::Observable>>>::_Rb_tree_impl" = type { [8 x i8], %"struct.std::_Rb_tree_header" }
%"class.boost::detail::shared_count" = type { ptr }
%"class.QuantLib::Observable" = type { ptr, %"class.std::set.0" }
%"class.boost::shared_ptr.7" = type { ptr, %"class.boost::detail::shared_count" }
%"class.QuantLib::GemanRoncoroniProcess" = type { %"class.QuantLib::StochasticProcess1D", double, double, double, double, double, double, double, double, double, double, double, double, double, double, double, double, double, %"class.boost::shared_ptr.8" }
%"class.QuantLib::StochasticProcess1D" = type { %"class.QuantLib::StochasticProcess", %"class.boost::shared_ptr.7" }
%"class.QuantLib::StochasticProcess" = type { %"class.QuantLib::Observer", %"class.QuantLib::Observable", %"class.boost::shared_ptr.6" }
%"class.QuantLib::Observer" = type { ptr, %"class.std::set" }
%"class.boost::shared_ptr.6" = type { ptr, %"class.boost::detail::shared_count" }
%"class.boost::shared_ptr.8" = type { ptr, %"class.boost::detail::shared_count" }
%"class.QuantLib::Array" = type { %"class.std::unique_ptr", i64 }
%"class.std::unique_ptr" = type { %"struct.std::__uniq_ptr_data" }
%"struct.std::__uniq_ptr_data" = type { %"class.std::__uniq_ptr_impl" }
%"class.std::__uniq_ptr_impl" = type { %"class.std::tuple" }
%"class.std::tuple" = type { %"struct.std::_Tuple_impl" }
%"struct.std::_Tuple_impl" = type { %"struct.std::_Head_base.10" }
%"struct.std::_Head_base.10" = type { ptr }

; Function Attrs: mustprogress nounwind uwtable
define linkonce_odr noundef nonnull align 8 dereferenceable(8) ptr @_ZNSt10_Head_baseILm0EPdLb0EE7_M_headERKS1_(ptr noundef nonnull align 8 dereferenceable(8) %__b) #1 comdat align 2 {
entry:
  %__b.addr = alloca ptr, align 8
  store ptr %__b, ptr %__b.addr, align 8, !tbaa !3
  %0 = load ptr, ptr %__b.addr, align 8, !tbaa !3
  %_M_head_impl = getelementptr inbounds nuw %"struct.std::_Head_base.10", ptr %0, i32 0, i32 0
  ret ptr %_M_head_impl
}

; Function Attrs: mustprogress nounwind uwtable
define linkonce_odr noundef nonnull align 8 dereferenceable(8) ptr @_ZNSt11_Tuple_implILm0EJPdSt14default_deleteIA_dEEE7_M_headERKS4_(ptr noundef nonnull align 8 dereferenceable(8) %__t) #1 comdat align 2 {
entry:
  %__t.addr = alloca ptr, align 8
  store ptr %__t, ptr %__t.addr, align 8, !tbaa !3
  %0 = load ptr, ptr %__t.addr, align 8, !tbaa !3
  %call = call noundef nonnull align 8 dereferenceable(8) ptr @_ZNSt10_Head_baseILm0EPdLb0EE7_M_headERKS1_(ptr noundef nonnull align 8 dereferenceable(8) %0) #12
  ret ptr %call
}

; Function Attrs: mustprogress nounwind uwtable
define linkonce_odr noundef nonnull align 8 dereferenceable(8) ptr @_ZSt12__get_helperILm0EPdJSt14default_deleteIA_dEEERKT0_RKSt11_Tuple_implIXT_EJS4_DpT1_EE(ptr noundef nonnull align 8 dereferenceable(8) %__t) #1 comdat {
entry:
  %__t.addr = alloca ptr, align 8
  store ptr %__t, ptr %__t.addr, align 8, !tbaa !3
  %0 = load ptr, ptr %__t.addr, align 8, !tbaa !3
  %call = call noundef nonnull align 8 dereferenceable(8) ptr @_ZNSt11_Tuple_implILm0EJPdSt14default_deleteIA_dEEE7_M_headERKS4_(ptr noundef nonnull align 8 dereferenceable(8) %0) #12
  ret ptr %call
}

; Function Attrs: mustprogress nounwind uwtable
define linkonce_odr noundef nonnull align 8 dereferenceable(8) ptr @_ZSt3getILm0EJPdSt14default_deleteIA_dEEERKNSt13tuple_elementIXT_ESt5tupleIJDpT0_EEE4typeERKS8_(ptr noundef nonnull align 8 dereferenceable(8) %__t) #1 comdat {
entry:
  %__t.addr = alloca ptr, align 8
  store ptr %__t, ptr %__t.addr, align 8, !tbaa !3
  %0 = load ptr, ptr %__t.addr, align 8, !tbaa !3
  %call = call noundef nonnull align 8 dereferenceable(8) ptr @_ZSt12__get_helperILm0EPdJSt14default_deleteIA_dEEERKT0_RKSt11_Tuple_implIXT_EJS4_DpT1_EE(ptr noundef nonnull align 8 dereferenceable(8) %0) #12
  ret ptr %call
}

; Function Attrs: mustprogress nounwind uwtable
define linkonce_odr noundef ptr @_ZNKSt15__uniq_ptr_implIdSt14default_deleteIA_dEE6_M_ptrEv(ptr noundef nonnull align 8 dereferenceable(8) %this) #1 comdat align 2 {
entry:
  %this.addr = alloca ptr, align 8
  store ptr %this, ptr %this.addr, align 8, !tbaa !3
  %this1 = load ptr, ptr %this.addr, align 8
  %_M_t = getelementptr inbounds nuw %"class.std::__uniq_ptr_impl", ptr %this1, i32 0, i32 0
  %call = call noundef nonnull align 8 dereferenceable(8) ptr @_ZSt3getILm0EJPdSt14default_deleteIA_dEEERKNSt13tuple_elementIXT_ESt5tupleIJDpT0_EEE4typeERKS8_(ptr noundef nonnull align 8 dereferenceable(8) %_M_t) #12
  %0 = load ptr, ptr %call, align 8, !tbaa !3
  ret ptr %0
}

; Function Attrs: mustprogress nounwind uwtable
define linkonce_odr noundef ptr @_ZNKSt10unique_ptrIA_dSt14default_deleteIS0_EE3getEv(ptr noundef nonnull align 8 dereferenceable(8) %this) #1 comdat align 2 {
entry:
  %this.addr = alloca ptr, align 8
  store ptr %this, ptr %this.addr, align 8, !tbaa !3
  %this1 = load ptr, ptr %this.addr, align 8
  %_M_t = getelementptr inbounds nuw %"class.std::unique_ptr", ptr %this1, i32 0, i32 0
  %call = call noundef ptr @_ZNKSt15__uniq_ptr_implIdSt14default_deleteIA_dEE6_M_ptrEv(ptr noundef nonnull align 8 dereferenceable(8) %_M_t) #12
  ret ptr %call
}

; Function Attrs: inlinehint mustprogress nounwind uwtable
define linkonce_odr noundef double @_ZNK8QuantLib5ArrayixEm(ptr noundef nonnull align 8 dereferenceable(16) %this, i64 noundef %i) #5 comdat align 2 {
entry:
  %this.addr = alloca ptr, align 8
  %i.addr = alloca i64, align 8
  store ptr %this, ptr %this.addr, align 8, !tbaa !3
  store i64 %i, ptr %i.addr, align 8, !tbaa !59
  %this1 = load ptr, ptr %this.addr, align 8
  %data_ = getelementptr inbounds nuw %"class.QuantLib::Array", ptr %this1, i32 0, i32 0
  %call = call noundef ptr @_ZNKSt10unique_ptrIA_dSt14default_deleteIS0_EE3getEv(ptr noundef nonnull align 8 dereferenceable(8) %data_) #12
  %0 = load i64, ptr %i.addr, align 8, !tbaa !59
  %arrayidx = getelementptr inbounds nuw double, ptr %call, i64 %0
  %1 = load double, ptr %arrayidx, align 8, !tbaa !12
  ret double %1
}

; Function Attrs: mustprogress uwtable
define noundef double @_ZNK8QuantLib21GemanRoncoroniProcess6evolveEddddRKNS_5ArrayE(ptr noundef nonnull align 8 dereferenceable(296) %this, double noundef %t0, double noundef %x0, double noundef %dt, double noundef %dw, ptr noundef nonnull align 8 dereferenceable(16) %du) #2 align 2 {
entry:
  %this.addr = alloca ptr, align 8
  %t0.addr = alloca double, align 8
  %x0.addr = alloca double, align 8
  %dt.addr = alloca double, align 8
  %dw.addr = alloca double, align 8
  %du.addr = alloca ptr, align 8
  %retVal = alloca double, align 8
  %t = alloca double, align 8
  %mu = alloca double, align 8
  %j = alloca double, align 8
  %jumpIntensity = alloca double, align 8
  %interarrival = alloca double, align 8
  store ptr %this, ptr %this.addr, align 8, !tbaa !3
  store double %t0, ptr %t0.addr, align 8, !tbaa !12
  store double %x0, ptr %x0.addr, align 8, !tbaa !12
  store double %dt, ptr %dt.addr, align 8, !tbaa !12
  store double %dw, ptr %dw.addr, align 8, !tbaa !12
  store ptr %du, ptr %du.addr, align 8, !tbaa !3
  %this1 = load ptr, ptr %this.addr, align 8
  call void @llvm.lifetime.start.p0(i64 8, ptr %retVal) #12
  call void @llvm.lifetime.start.p0(i64 8, ptr %t) #12
  %0 = load double, ptr %t0.addr, align 8, !tbaa !12
  %1 = load double, ptr %dt.addr, align 8, !tbaa !12
  %2 = call double @llvm.fmuladd.f64(double 5.000000e-01, double %1, double %0)
  store double %2, ptr %t, align 8, !tbaa !12
  call void @llvm.lifetime.start.p0(i64 8, ptr %mu) #12
  %alpha_ = getelementptr inbounds nuw %"class.QuantLib::GemanRoncoroniProcess", ptr %this1, i32 0, i32 2
  %3 = load double, ptr %alpha_, align 8, !tbaa !39
  %beta_ = getelementptr inbounds nuw %"class.QuantLib::GemanRoncoroniProcess", ptr %this1, i32 0, i32 3
  %4 = load double, ptr %beta_, align 8, !tbaa !40
  %5 = load double, ptr %t, align 8, !tbaa !12
  %6 = call double @llvm.fmuladd.f64(double %4, double %5, double %3)
  %gamma_ = getelementptr inbounds nuw %"class.QuantLib::GemanRoncoroniProcess", ptr %this1, i32 0, i32 4
  %7 = load double, ptr %gamma_, align 8, !tbaa !41
  %eps_ = getelementptr inbounds nuw %"class.QuantLib::GemanRoncoroniProcess", ptr %this1, i32 0, i32 6
  %8 = load double, ptr %eps_, align 8, !tbaa !43
  %9 = load double, ptr %t, align 8, !tbaa !12
  %10 = call double @llvm.fmuladd.f64(double 0x401921FB54442D18, double %9, double %8)
  %call = call double @cos(double noundef %10) #12, !tbaa !57
  %11 = call double @llvm.fmuladd.f64(double %7, double %call, double %6)
  %delta_ = getelementptr inbounds nuw %"class.QuantLib::GemanRoncoroniProcess", ptr %this1, i32 0, i32 5
  %12 = load double, ptr %delta_, align 8, !tbaa !42
  %zeta_ = getelementptr inbounds nuw %"class.QuantLib::GemanRoncoroniProcess", ptr %this1, i32 0, i32 7
  %13 = load double, ptr %zeta_, align 8, !tbaa !44
  %14 = load double, ptr %t, align 8, !tbaa !12
  %15 = call double @llvm.fmuladd.f64(double 0x402921FB54442D18, double %14, double %13)
  %call2 = call double @cos(double noundef %15) #12, !tbaa !57
  %16 = call double @llvm.fmuladd.f64(double %12, double %call2, double %11)
  store double %16, ptr %mu, align 8, !tbaa !12
  call void @llvm.lifetime.start.p0(i64 8, ptr %j) #12
  %theta3_ = getelementptr inbounds nuw %"class.QuantLib::GemanRoncoroniProcess", ptr %this1, i32 0, i32 16
  %17 = load double, ptr %theta3_, align 8, !tbaa !53
  %div = fdiv double -1.000000e+00, %17
  %18 = load ptr, ptr %du.addr, align 8, !tbaa !3
  %call3 = call noundef double @_ZNK8QuantLib5ArrayixEm(ptr noundef nonnull align 8 dereferenceable(16) %18, i64 noundef 1)
  %theta3_4 = getelementptr inbounds nuw %"class.QuantLib::GemanRoncoroniProcess", ptr %this1, i32 0, i32 16
  %19 = load double, ptr %theta3_4, align 8, !tbaa !53
  %fneg = fneg double %19
  %psi_ = getelementptr inbounds nuw %"class.QuantLib::GemanRoncoroniProcess", ptr %this1, i32 0, i32 17
  %20 = load double, ptr %psi_, align 8, !tbaa !54
  %mul = fmul double %fneg, %20
  %call5 = call double @exp(double noundef %mul) #12, !tbaa !57
  %sub = fsub double %call5, 1.000000e+00
  %21 = call double @llvm.fmuladd.f64(double %call3, double %sub, double 1.000000e+00)
  %call7 = call double @log(double noundef %21) #12, !tbaa !57
  %mul8 = fmul double %div, %call7
  store double %mul8, ptr %j, align 8, !tbaa !12
  %22 = load double, ptr %x0.addr, align 8, !tbaa !12
  %23 = load double, ptr %mu, align 8, !tbaa !12
  %d_ = getelementptr inbounds nuw %"class.QuantLib::GemanRoncoroniProcess", ptr %this1, i32 0, i32 8
  %24 = load double, ptr %d_, align 8, !tbaa !45
  %add = fadd double %23, %24
  %cmp = fcmp ole double %22, %add
  br i1 %cmp, label %if.then, label %if.else

if.then:                                          ; preds = %entry
  %25 = load double, ptr %t, align 8, !tbaa !12
  %26 = load double, ptr %x0.addr, align 8, !tbaa !12
  %27 = load double, ptr %dt.addr, align 8, !tbaa !12
  %28 = load double, ptr %dw.addr, align 8, !tbaa !12
  %call9 = call noundef double @_ZNK8QuantLib19StochasticProcess1D6evolveEdddd(ptr noundef nonnull align 8 dereferenceable(144) %this1, double noundef %25, double noundef %26, double noundef %27, double noundef %28)
  store double %call9, ptr %retVal, align 8, !tbaa !12
  call void @llvm.lifetime.start.p0(i64 8, ptr %jumpIntensity) #12
  %theta2_ = getelementptr inbounds nuw %"class.QuantLib::GemanRoncoroniProcess", ptr %this1, i32 0, i32 15
  %29 = load double, ptr %theta2_, align 8, !tbaa !52
  %30 = load double, ptr %t, align 8, !tbaa !12
  %tau_ = getelementptr inbounds nuw %"class.QuantLib::GemanRoncoroniProcess", ptr %this1, i32 0, i32 10
  %31 = load double, ptr %tau_, align 8, !tbaa !47
  %sub10 = fsub double %30, %31
  %mul11 = fmul double 0x400921FB54442D18, %sub10
  %k_ = getelementptr inbounds nuw %"class.QuantLib::GemanRoncoroniProcess", ptr %this1, i32 0, i32 9
  %32 = load double, ptr %k_, align 8, !tbaa !46
  %div12 = fdiv double %mul11, %32
  %call13 = call double @sin(double noundef %div12) #12, !tbaa !57
  %33 = call double @llvm.fabs.f64(double %call13)
  %add14 = fadd double 1.000000e+00, %33
  %div15 = fdiv double 2.000000e+00, %add14
  %sub16 = fsub double %div15, 1.000000e+00
  %mul17 = fmul double %29, %sub16
  store double %mul17, ptr %jumpIntensity, align 8, !tbaa !12
  call void @llvm.lifetime.start.p0(i64 8, ptr %interarrival) #12
  %34 = load double, ptr %jumpIntensity, align 8, !tbaa !12
  %div18 = fdiv double -1.000000e+00, %34
  %35 = load ptr, ptr %du.addr, align 8, !tbaa !3
  %call19 = call noundef double @_ZNK8QuantLib5ArrayixEm(ptr noundef nonnull align 8 dereferenceable(16) %35, i64 noundef 0)
  %call20 = call double @log(double noundef %call19) #12, !tbaa !57
  %mul21 = fmul double %div18, %call20
  store double %mul21, ptr %interarrival, align 8, !tbaa !12
  %36 = load double, ptr %interarrival, align 8, !tbaa !12
  %37 = load double, ptr %dt.addr, align 8, !tbaa !12
  %cmp22 = fcmp olt double %36, %37
  br i1 %cmp22, label %if.then23, label %if.end

if.then23:                                        ; preds = %if.then
  %38 = load double, ptr %j, align 8, !tbaa !12
  %39 = load double, ptr %retVal, align 8, !tbaa !12
  %add24 = fadd double %39, %38
  store double %add24, ptr %retVal, align 8, !tbaa !12
  br label %if.end

if.end:                                           ; preds = %if.then23, %if.then
  call void @llvm.lifetime.end.p0(i64 8, ptr %interarrival) #12
  call void @llvm.lifetime.end.p0(i64 8, ptr %jumpIntensity) #12
  br label %if.end26

if.else:                                          ; preds = %entry
  %40 = load double, ptr %x0.addr, align 8, !tbaa !12
  %41 = load double, ptr %j, align 8, !tbaa !12
  %sub25 = fsub double %40, %41
  store double %sub25, ptr %retVal, align 8, !tbaa !12
  br label %if.end26

if.end26:                                         ; preds = %if.else, %if.end
  %42 = load double, ptr %retVal, align 8, !tbaa !12
  call void @llvm.lifetime.end.p0(i64 8, ptr %j) #12
  call void @llvm.lifetime.end.p0(i64 8, ptr %mu) #12
  call void @llvm.lifetime.end.p0(i64 8, ptr %t) #12
  call void @llvm.lifetime.end.p0(i64 8, ptr %retVal) #12
  ret double %42
}