; Function Attrs: mustprogress uwtable
define noundef double @_ZNK8QuantLib21GemanRoncoroniProcess6evolveEddddRKNS_5ArrayE(ptr noundef nonnull align 8 dereferenceable(296) %this, double noundef %t0, double noundef %x0, double noundef %dt, double noundef %dw, ptr nocapture noundef nonnull readonly align 8 dereferenceable(16) %du) local_unnamed_addr #6 align 2 {
entry:
  %0 = tail call double @llvm.fmuladd.f64(double %dt, double 5.000000e-01, double %t0)
  %alpha_ = getelementptr inbounds nuw i8, ptr %this, i64 152
  %1 = load double, ptr %alpha_, align 8, !tbaa !54
  %beta_ = getelementptr inbounds nuw i8, ptr %this, i64 160
  %2 = load double, ptr %beta_, align 8, !tbaa !55
  %3 = tail call double @llvm.fmuladd.f64(double %2, double %0, double %1)
  %gamma_ = getelementptr inbounds nuw i8, ptr %this, i64 168
  %4 = load double, ptr %gamma_, align 8, !tbaa !56
  %eps_ = getelementptr inbounds nuw i8, ptr %this, i64 184
  %5 = load double, ptr %eps_, align 8, !tbaa !58
  %6 = tail call double @llvm.fmuladd.f64(double %0, double 0x401921FB54442D18, double %5)
  %call = tail call double @cos(double noundef %6) #21, !tbaa !70
  %7 = tail call double @llvm.fmuladd.f64(double %4, double %call, double %3)
  %delta_ = getelementptr inbounds nuw i8, ptr %this, i64 176
  %8 = load double, ptr %delta_, align 8, !tbaa !57
  %zeta_ = getelementptr inbounds nuw i8, ptr %this, i64 192
  %9 = load double, ptr %zeta_, align 8, !tbaa !59
  %10 = tail call double @llvm.fmuladd.f64(double %0, double 0x402921FB54442D18, double %9)
  %call2 = tail call double @cos(double noundef %10) #21, !tbaa !70
  %11 = tail call double @llvm.fmuladd.f64(double %8, double %call2, double %7)
  %theta3_ = getelementptr inbounds nuw i8, ptr %this, i64 264
  %12 = load double, ptr %theta3_, align 8, !tbaa !68
  %div = fdiv double -1.000000e+00, %12
  %13 = load ptr, ptr %du, align 8, !tbaa !3
  %arrayidx.i = getelementptr inbounds nuw i8, ptr %13, i64 8
  %14 = load double, ptr %arrayidx.i, align 8, !tbaa !84
  %fneg = fneg double %12
  %psi_ = getelementptr inbounds nuw i8, ptr %this, i64 272
  %15 = load double, ptr %psi_, align 8, !tbaa !69
  %mul = fmul double %15, %fneg
  %call5 = tail call double @exp(double noundef %mul) #21, !tbaa !70
  %sub = fadd double %call5, -1.000000e+00
  %16 = tail call double @llvm.fmuladd.f64(double %14, double %sub, double 1.000000e+00)
  %call7 = tail call double @log(double noundef %16) #21, !tbaa !70
  %mul8 = fmul double %div, %call7
  %d_ = getelementptr inbounds nuw i8, ptr %this, i64 200
  %17 = load double, ptr %d_, align 8, !tbaa !60
  %add = fadd double %11, %17
  %cmp = fcmp ugt double %x0, %add
  br i1 %cmp, label %if.else, label %if.then

if.then:                                          ; preds = %entry
  %call9 = tail call noundef double @_ZNK8QuantLib19StochasticProcess1D6evolveEdddd(ptr noundef nonnull align 8 dereferenceable(144) %this, double noundef %0, double noundef %x0, double noundef %dt, double noundef %dw)
  %theta2_ = getelementptr inbounds nuw i8, ptr %this, i64 256
  %18 = load double, ptr %theta2_, align 8, !tbaa !67
  %tau_ = getelementptr inbounds nuw i8, ptr %this, i64 216
  %19 = load double, ptr %tau_, align 8, !tbaa !62
  %sub10 = fsub double %0, %19
  %mul11 = fmul double %sub10, 0x400921FB54442D18
  %k_ = getelementptr inbounds nuw i8, ptr %this, i64 208
  %20 = load double, ptr %k_, align 8, !tbaa !61
  %div12 = fdiv double %mul11, %20
  %call13 = tail call double @sin(double noundef %div12) #21, !tbaa !70
  %21 = tail call double @llvm.fabs.f64(double %call13)
  %add14 = fadd double %21, 1.000000e+00
  %div15 = fdiv double 2.000000e+00, %add14
  %sub16 = fadd double %div15, -1.000000e+00
  %mul17 = fmul double %18, %sub16
  %div18 = fdiv double -1.000000e+00, %mul17
  %22 = load ptr, ptr %du, align 8, !tbaa !3
  %23 = load double, ptr %22, align 8, !tbaa !84
  %call20 = tail call double @log(double noundef %23) #21, !tbaa !70
  %mul21 = fmul double %call20, %div18
  %cmp22 = fcmp olt double %mul21, %dt
  %add24 = fadd double %mul8, %call9
  %retVal.0 = select i1 %cmp22, double %add24, double %call9
  br label %if.end26

if.else:                                          ; preds = %entry
  %sub25 = fsub double %x0, %mul8
  br label %if.end26

if.end26:                                         ; preds = %if.else, %if.then
  %retVal.1 = phi double [ %retVal.0, %if.then ], [ %sub25, %if.else ]
  ret double %retVal.1
}